target datalayout = "e-m:e-p270:32:32-p271:32:32-p272:64:64-i64:64-i128:128-f80:128-n8:16:32:64-S128"
target triple = "x86_64-pc-linux-gnu"

%struct.poly_st = type { [256 x i32] }
%struct.PACKET = type { ptr, i64 }

; Function Attrs: inlinehint nounwind uwtable
define internal i32 @constant_time_msb_32(i32 noundef %0) #3 {
  %2 = alloca i32, align 4
  store i32 %0, ptr %2, align 4, !tbaa !8
  %3 = load i32, ptr %2, align 4, !tbaa !8
  %4 = lshr i32 %3, 31
  %5 = sub i32 0, %4
  ret i32 %5
}

; Function Attrs: inlinehint nounwind uwtable
define internal i32 @constant_time_select_32(i32 noundef %0, i32 noundef %1, i32 noundef %2) #3 {
  %4 = alloca i32, align 4
  %5 = alloca i32, align 4
  %6 = alloca i32, align 4
  store i32 %0, ptr %4, align 4, !tbaa !8
  store i32 %1, ptr %5, align 4, !tbaa !8
  store i32 %2, ptr %6, align 4, !tbaa !8
  %7 = load i32, ptr %4, align 4, !tbaa !8
  %8 = call i32 @value_barrier_32(i32 noundef %7)
  %9 = load i32, ptr %5, align 4, !tbaa !8
  %10 = and i32 %8, %9
  %11 = load i32, ptr %4, align 4, !tbaa !8
  %12 = xor i32 %11, -1
  %13 = call i32 @value_barrier_32(i32 noundef %12)
  %14 = load i32, ptr %6, align 4, !tbaa !8
  %15 = and i32 %13, %14
  %16 = or i32 %10, %15
  ret i32 %16
}

; Function Attrs: inlinehint nounwind uwtable
define internal i32 @constant_time_lt_32(i32 noundef %0, i32 noundef %1) #3 {
  %3 = alloca i32, align 4
  %4 = alloca i32, align 4
  store i32 %0, ptr %3, align 4, !tbaa !8
  store i32 %1, ptr %4, align 4, !tbaa !8
  %5 = load i32, ptr %3, align 4, !tbaa !8
  %6 = load i32, ptr %3, align 4, !tbaa !8
  %7 = load i32, ptr %4, align 4, !tbaa !8
  %8 = xor i32 %6, %7
  %9 = load i32, ptr %3, align 4, !tbaa !8
  %10 = load i32, ptr %4, align 4, !tbaa !8
  %11 = sub i32 %9, %10
  %12 = load i32, ptr %4, align 4, !tbaa !8
  %13 = xor i32 %11, %12
  %14 = or i32 %8, %13
  %15 = xor i32 %5, %14
  %16 = call i32 @constant_time_msb_32(i32 noundef %15)
  ret i32 %16
}

; Function Attrs: inlinehint nounwind uwtable
define internal i64 @PACKET_remaining(ptr noundef %0) #3 {
  %2 = alloca ptr, align 8
  store ptr %0, ptr %2, align 8, !tbaa !40
  %3 = load ptr, ptr %2, align 8, !tbaa !40
  %4 = getelementptr inbounds nuw %struct.PACKET, ptr %3, i32 0, i32 1
  %5 = load i64, ptr %4, align 8, !tbaa !43
  ret i64 %5
}

; Function Attrs: inlinehint nounwind uwtable
define internal i32 @reduce_once(i32 noundef %0) #3 {
  %2 = alloca i32, align 4
  store i32 %0, ptr %2, align 4, !tbaa !8
  %3 = load i32, ptr %2, align 4, !tbaa !8
  %4 = call i32 @constant_time_lt_32(i32 noundef %3, i32 noundef 8380417)
  %5 = load i32, ptr %2, align 4, !tbaa !8
  %6 = load i32, ptr %2, align 4, !tbaa !8
  %7 = sub i32 %6, 8380417
  %8 = call i32 @constant_time_select_32(i32 noundef %4, i32 noundef %5, i32 noundef %7)
  ret i32 %8
}

; Function Attrs: inlinehint nounwind uwtable
define internal i32 @__uint32_identity(i32 noundef %0) #3 {
  %2 = alloca i32, align 4
  store i32 %0, ptr %2, align 4, !tbaa !8
  %3 = load i32, ptr %2, align 4, !tbaa !8
  ret i32 %3
}

; Function Attrs: inlinehint nounwind uwtable
define internal void @packet_forward(ptr noundef %0, i64 noundef %1) #3 {
  %3 = alloca ptr, align 8
  %4 = alloca i64, align 8
  store ptr %0, ptr %3, align 8, !tbaa !40
  store i64 %1, ptr %4, align 8, !tbaa !10
  %5 = load i64, ptr %4, align 8, !tbaa !10
  %6 = load ptr, ptr %3, align 8, !tbaa !40
  %7 = getelementptr inbounds nuw %struct.PACKET, ptr %6, i32 0, i32 0
  %8 = load ptr, ptr %7, align 8, !tbaa !41
  %9 = getelementptr inbounds nuw i8, ptr %8, i64 %5
  store ptr %9, ptr %7, align 8, !tbaa !41
  %10 = load i64, ptr %4, align 8, !tbaa !10
  %11 = load ptr, ptr %3, align 8, !tbaa !40
  %12 = getelementptr inbounds nuw %struct.PACKET, ptr %11, i32 0, i32 1
  %13 = load i64, ptr %12, align 8, !tbaa !43
  %14 = sub i64 %13, %10
  store i64 %14, ptr %12, align 8, !tbaa !43
  ret void
}

; Function Attrs: inlinehint nounwind uwtable
define internal i32 @PACKET_peek_bytes(ptr noundef %0, ptr noundef %1, i64 noundef %2) #3 {
  %4 = alloca i32, align 4
  %5 = alloca ptr, align 8
  %6 = alloca ptr, align 8
  %7 = alloca i64, align 8
  store ptr %0, ptr %5, align 8, !tbaa !40
  store ptr %1, ptr %6, align 8, !tbaa !97
  store i64 %2, ptr %7, align 8, !tbaa !10
  %8 = load ptr, ptr %5, align 8, !tbaa !40
  %9 = call i64 @PACKET_remaining(ptr noundef %8)
  %10 = load i64, ptr %7, align 8, !tbaa !10
  %11 = icmp ult i64 %9, %10
  br i1 %11, label %12, label %13

12:                                               ; preds = %3
  store i32 0, ptr %4, align 4
  br label %18

13:                                               ; preds = %3
  %14 = load ptr, ptr %5, align 8, !tbaa !40
  %15 = getelementptr inbounds nuw %struct.PACKET, ptr %14, i32 0, i32 0
  %16 = load ptr, ptr %15, align 8, !tbaa !41
  %17 = load ptr, ptr %6, align 8, !tbaa !97
  store ptr %16, ptr %17, align 8, !tbaa !25
  store i32 1, ptr %4, align 4
  br label %18

18:                                               ; preds = %13, %12
  %19 = load i32, ptr %4, align 4
  ret i32 %19
}

; Function Attrs: inlinehint nounwind uwtable
define internal i32 @mod_sub(i32 noundef %0, i32 noundef %1) #3 {
  %3 = alloca i32, align 4
  %4 = alloca i32, align 4
  store i32 %0, ptr %3, align 4, !tbaa !8
  store i32 %1, ptr %4, align 4, !tbaa !8
  %5 = load i32, ptr %3, align 4, !tbaa !8
  %6 = add i32 8380417, %5
  %7 = load i32, ptr %4, align 4, !tbaa !8
  %8 = sub i32 %6, %7
  %9 = call i32 @reduce_once(i32 noundef %8)
  ret i32 %9
}

; Function Attrs: inlinehint nounwind uwtable
define internal i32 @value_barrier_32(i32 noundef %0) #3 {
  %2 = alloca i32, align 4
  %3 = alloca i32, align 4
  store i32 %0, ptr %2, align 4, !tbaa !8
  call void @llvm.lifetime.start.p0(i64 4, ptr %3) #7
  %4 = load i32, ptr %2, align 4, !tbaa !8
  %5 = call i32 asm "", "=r,0,~{dirflag},~{fpsr},~{flags}"(i32 %4) #9, !srcloc !99
  store i32 %5, ptr %3, align 4, !tbaa !8
  %6 = load i32, ptr %3, align 4, !tbaa !8
  call void @llvm.lifetime.end.p0(i64 4, ptr %3) #7
  ret i32 %6
}

; Function Attrs: inlinehint nounwind uwtable
define internal ptr @OPENSSL_load_u32_le(ptr noundef %0, ptr noundef %1) #3 {
  %3 = alloca ptr, align 8
  %4 = alloca ptr, align 8
  %5 = alloca i32, align 4
  store ptr %0, ptr %3, align 8, !tbaa !31
  store ptr %1, ptr %4, align 8, !tbaa !25
  call void @llvm.lifetime.start.p0(i64 4, ptr %5) #7
  %6 = load ptr, ptr %4, align 8, !tbaa !25
  call void @llvm.memcpy.p0.p0.i64(ptr align 4 %5, ptr align 1 %6, i64 4, i1 false)
  %7 = load i32, ptr %5, align 4, !tbaa !8
  %8 = call i32 @__uint32_identity(i32 noundef %7)
  %9 = load ptr, ptr %3, align 8, !tbaa !31
  store i32 %8, ptr %9, align 4, !tbaa !8
  %10 = load ptr, ptr %4, align 8, !tbaa !25
  %11 = getelementptr inbounds i8, ptr %10, i64 4
  call void @llvm.lifetime.end.p0(i64 4, ptr %5) #7
  ret ptr %11
}

; Function Attrs: inlinehint nounwind uwtable
define internal i32 @PACKET_get_bytes(ptr noundef %0, ptr noundef %1, i64 noundef %2) #3 {
  %4 = alloca i32, align 4
  %5 = alloca ptr, align 8
  %6 = alloca ptr, align 8
  %7 = alloca i64, align 8
  store ptr %0, ptr %5, align 8, !tbaa !40
  store ptr %1, ptr %6, align 8, !tbaa !97
  store i64 %2, ptr %7, align 8, !tbaa !10
  %8 = load ptr, ptr %5, align 8, !tbaa !40
  %9 = load ptr, ptr %6, align 8, !tbaa !97
  %10 = load i64, ptr %7, align 8, !tbaa !10
  %11 = call i32 @PACKET_peek_bytes(ptr noundef %8, ptr noundef %9, i64 noundef %10)
  %12 = icmp ne i32 %11, 0
  br i1 %12, label %14, label %13

13:                                               ; preds = %3
  store i32 0, ptr %4, align 4
  br label %17

14:                                               ; preds = %3
  %15 = load ptr, ptr %5, align 8, !tbaa !40
  %16 = load i64, ptr %7, align 8, !tbaa !10
  call void @packet_forward(ptr noundef %15, i64 noundef %16)
  store i32 1, ptr %4, align 4
  br label %17

17:                                               ; preds = %14, %13
  %18 = load i32, ptr %4, align 4
  ret i32 %18
}

; Function Attrs: nounwind uwtable
define internal i32 @poly_decode_signed_4(ptr noundef %0, ptr noundef %1) #0 {
  %3 = alloca ptr, align 8
  %4 = alloca ptr, align 8
  %5 = alloca i32, align 4
  %6 = alloca i32, align 4
  %7 = alloca i32, align 4
  %8 = alloca ptr, align 8
  %9 = alloca ptr, align 8
  %10 = alloca i32, align 4
  %11 = alloca i32, align 4
  store ptr %0, ptr %3, align 8, !tbaa !20
  store ptr %1, ptr %4, align 8, !tbaa !40
  call void @llvm.lifetime.start.p0(i64 4, ptr %5) #7
  call void @llvm.lifetime.start.p0(i64 4, ptr %6) #7
  store i32 0, ptr %6, align 4, !tbaa !8
  call void @llvm.lifetime.start.p0(i64 4, ptr %7) #7
  call void @llvm.lifetime.start.p0(i64 8, ptr %8) #7
  %12 = load ptr, ptr %3, align 8, !tbaa !20
  %13 = getelementptr inbounds nuw %struct.poly_st, ptr %12, i32 0, i32 0
  %14 = getelementptr inbounds [256 x i32], ptr %13, i64 0, i64 0
  store ptr %14, ptr %8, align 8, !tbaa !31
  call void @llvm.lifetime.start.p0(i64 8, ptr %9) #7
  call void @llvm.lifetime.start.p0(i64 4, ptr %10) #7
  call void @llvm.lifetime.start.p0(i64 4, ptr %11) #7
  store i32 0, ptr %5, align 4, !tbaa !8
  br label %15

15:                                               ; preds = %91, %2
  %16 = load i32, ptr %5, align 4, !tbaa !8
  %17 = icmp slt i32 %16, 32
  br i1 %17, label %18, label %94

18:                                               ; preds = %15
  %19 = load ptr, ptr %4, align 8, !tbaa !40
  %20 = call i32 @PACKET_get_bytes(ptr noundef %19, ptr noundef %9, i64 noundef 4)
  %21 = icmp ne i32 %20, 0
  br i1 %21, label %23, label %22

22:                                               ; preds = %18
  br label %95

23:                                               ; preds = %18
  %24 = load ptr, ptr %9, align 8, !tbaa !25
  %25 = call ptr @OPENSSL_load_u32_le(ptr noundef %7, ptr noundef %24)
  store ptr %25, ptr %9, align 8, !tbaa !25
  %26 = load i32, ptr %7, align 4, !tbaa !8
  %27 = and i32 %26, -2004318072
  store i32 %27, ptr %10, align 4, !tbaa !8
  %28 = load i32, ptr %10, align 4, !tbaa !8
  %29 = lshr i32 %28, 1
  %30 = load i32, ptr %10, align 4, !tbaa !8
  %31 = lshr i32 %30, 2
  %32 = or i32 %29, %31
  %33 = load i32, ptr %10, align 4, !tbaa !8
  %34 = lshr i32 %33, 3
  %35 = or i32 %32, %34
  store i32 %35, ptr %11, align 4, !tbaa !8
  %36 = load i32, ptr %11, align 4, !tbaa !8
  %37 = load i32, ptr %7, align 4, !tbaa !8
  %38 = and i32 %36, %37
  %39 = icmp ne i32 %38, 0
  %40 = zext i1 %39 to i32
  %41 = call i32 @value_barrier_32(i32 noundef %40)
  %42 = icmp ne i32 %41, 0
  br i1 %42, label %43, label %44

43:                                               ; preds = %23
  br label %95

44:                                               ; preds = %23
  %45 = load i32, ptr %7, align 4, !tbaa !8
  %46 = and i32 %45, 15
  %47 = call i32 @mod_sub(i32 noundef 4, i32 noundef %46)
  %48 = load ptr, ptr %8, align 8, !tbaa !31
  %49 = getelementptr inbounds nuw i32, ptr %48, i32 1
  store ptr %49, ptr %8, align 8, !tbaa !31
  store i32 %47, ptr %48, align 4, !tbaa !8
  %50 = load i32, ptr %7, align 4, !tbaa !8
  %51 = lshr i32 %50, 4
  %52 = and i32 %51, 15
  %53 = call i32 @mod_sub(i32 noundef 4, i32 noundef %52)
  %54 = load ptr, ptr %8, align 8, !tbaa !31
  %55 = getelementptr inbounds nuw i32, ptr %54, i32 1
  store ptr %55, ptr %8, align 8, !tbaa !31
  store i32 %53, ptr %54, align 4, !tbaa !8
  %56 = load i32, ptr %7, align 4, !tbaa !8
  %57 = lshr i32 %56, 8
  %58 = and i32 %57, 15
  %59 = call i32 @mod_sub(i32 noundef 4, i32 noundef %58)
  %60 = load ptr, ptr %8, align 8, !tbaa !31
  %61 = getelementptr inbounds nuw i32, ptr %60, i32 1
  store ptr %61, ptr %8, align 8, !tbaa !31
  store i32 %59, ptr %60, align 4, !tbaa !8
  %62 = load i32, ptr %7, align 4, !tbaa !8
  %63 = lshr i32 %62, 12
  %64 = and i32 %63, 15
  %65 = call i32 @mod_sub(i32 noundef 4, i32 noundef %64)
  %66 = load ptr, ptr %8, align 8, !tbaa !31
  %67 = getelementptr inbounds nuw i32, ptr %66, i32 1
  store ptr %67, ptr %8, align 8, !tbaa !31
  store i32 %65, ptr %66, align 4, !tbaa !8
  %68 = load i32, ptr %7, align 4, !tbaa !8
  %69 = lshr i32 %68, 16
  %70 = and i32 %69, 15
  %71 = call i32 @mod_sub(i32 noundef 4, i32 noundef %70)
  %72 = load ptr, ptr %8, align 8, !tbaa !31
  %73 = getelementptr inbounds nuw i32, ptr %72, i32 1
  store ptr %73, ptr %8, align 8, !tbaa !31
  store i32 %71, ptr %72, align 4, !tbaa !8
  %74 = load i32, ptr %7, align 4, !tbaa !8
  %75 = lshr i32 %74, 20
  %76 = and i32 %75, 15
  %77 = call i32 @mod_sub(i32 noundef 4, i32 noundef %76)
  %78 = load ptr, ptr %8, align 8, !tbaa !31
  %79 = getelementptr inbounds nuw i32, ptr %78, i32 1
  store ptr %79, ptr %8, align 8, !tbaa !31
  store i32 %77, ptr %78, align 4, !tbaa !8
  %80 = load i32, ptr %7, align 4, !tbaa !8
  %81 = lshr i32 %80, 24
  %82 = and i32 %81, 15
  %83 = call i32 @mod_sub(i32 noundef 4, i32 noundef %82)
  %84 = load ptr, ptr %8, align 8, !tbaa !31
  %85 = getelementptr inbounds nuw i32, ptr %84, i32 1
  store ptr %85, ptr %8, align 8, !tbaa !31
  store i32 %83, ptr %84, align 4, !tbaa !8
  %86 = load i32, ptr %7, align 4, !tbaa !8
  %87 = lshr i32 %86, 28
  %88 = call i32 @mod_sub(i32 noundef 4, i32 noundef %87)
  %89 = load ptr, ptr %8, align 8, !tbaa !31
  %90 = getelementptr inbounds nuw i32, ptr %89, i32 1
  store ptr %90, ptr %8, align 8, !tbaa !31
  store i32 %88, ptr %89, align 4, !tbaa !8
  br label %91

91:                                               ; preds = %44
  %92 = load i32, ptr %5, align 4, !tbaa !8
  %93 = add nsw i32 %92, 1
  store i32 %93, ptr %5, align 4, !tbaa !8
  br label %15, !llvm.loop !64

94:                                               ; preds = %15
  store i32 1, ptr %6, align 4, !tbaa !8
  br label %95

95:                                               ; preds = %94, %43, %22
  %96 = load i32, ptr %6, align 4, !tbaa !8
  call void @llvm.lifetime.end.p0(i64 4, ptr %11) #7
  call void @llvm.lifetime.end.p0(i64 4, ptr %10) #7
  call void @llvm.lifetime.end.p0(i64 8, ptr %9) #7
  call void @llvm.lifetime.end.p0(i64 8, ptr %8) #7
  call void @llvm.lifetime.end.p0(i64 4, ptr %7) #7
  call void @llvm.lifetime.end.p0(i64 4, ptr %6) #7
  call void @llvm.lifetime.end.p0(i64 4, ptr %5) #7
  ret i32 %96
}