; Function Attrs: nounwind memory(read, argmem: readwrite, inaccessiblemem: none) uwtable
define internal range(i32 0, 2) i32 @poly_decode_signed_4(ptr noundef writeonly captures(none) %0, ptr noundef captures(none) %1) unnamed_addr #4 {
  %3 = getelementptr i8, ptr %1, i64 8
  %.promoted = load i64, ptr %3, align 8, !tbaa !50
  br label %4

4:                                                ; preds = %2, %21
  %5 = phi i64 [ %.promoted, %2 ], [ %10, %21 ]
  %.039 = phi i32 [ 0, %2 ], [ %108, %21 ]
  %.01738 = phi ptr [ %0, %2 ], [ %107, %21 ]
  %6 = icmp ult i64 %5, 4
  br i1 %6, label %PACKET_get_bytes.exit.thread, label %7

7:                                                ; preds = %4
  %8 = load ptr, ptr %1, align 8, !tbaa !48
  %9 = getelementptr inbounds nuw i8, ptr %8, i64 4
  store ptr %9, ptr %1, align 8, !tbaa !48
  %10 = add i64 %5, -4
  store i64 %10, ptr %3, align 8, !tbaa !50
  %.0.copyload.i = load i32, ptr %8, align 1
  %11 = and i32 %.0.copyload.i, -2004318072
  %12 = lshr exact i32 %11, 1
  %13 = lshr exact i32 %11, 2
  %14 = or disjoint i32 %12, %13
  %15 = lshr exact i32 %11, 3
  %16 = or disjoint i32 %14, %15
  %17 = and i32 %16, %.0.copyload.i
  %18 = icmp ne i32 %17, 0
  %19 = zext i1 %18 to i32
  %20 = tail call i32 asm "", "=r,0,~{dirflag},~{fpsr},~{flags}"(i32 range(i32 -1, 2) %19) #10, !srcloc !42
  %.not18 = icmp eq i32 %20, 0
  br i1 %.not18, label %21, label %PACKET_get_bytes.exit.thread

21:                                               ; preds = %7
  %22 = and i32 %.0.copyload.i, 15
  %23 = sub nuw nsw i32 8380421, %22
  %24 = sub nsw i32 4, %22
  %.neg.i.i.i.i = ashr i32 %24, 31
  %25 = tail call i32 asm "", "=r,0,~{dirflag},~{fpsr},~{flags}"(i32 range(i32 -1, 1) %.neg.i.i.i.i) #10, !srcloc !42
  %26 = and i32 %25, %23
  %27 = xor i32 %.neg.i.i.i.i, -1
  %28 = tail call i32 asm "", "=r,0,~{dirflag},~{fpsr},~{flags}"(i32 range(i32 -1, 2) %27) #10, !srcloc !42
  %29 = and i32 %28, %24
  %30 = or i32 %29, %26
  %31 = getelementptr inbounds nuw i8, ptr %.01738, i64 4
  store i32 %30, ptr %.01738, align 4, !tbaa !21
  %32 = lshr i32 %.0.copyload.i, 4
  %33 = and i32 %32, 15
  %34 = sub nuw nsw i32 8380421, %33
  %35 = sub nsw i32 4, %33
  %.neg.i.i.i.i19 = ashr i32 %35, 31
  %36 = tail call i32 asm "", "=r,0,~{dirflag},~{fpsr},~{flags}"(i32 range(i32 -1, 1) %.neg.i.i.i.i19) #10, !srcloc !42
  %37 = and i32 %36, %34
  %38 = xor i32 %.neg.i.i.i.i19, -1
  %39 = tail call i32 asm "", "=r,0,~{dirflag},~{fpsr},~{flags}"(i32 range(i32 -1, 2) %38) #10, !srcloc !42
  %40 = and i32 %39, %35
  %41 = or i32 %40, %37
  %42 = getelementptr inbounds nuw i8, ptr %.01738, i64 8
  store i32 %41, ptr %31, align 4, !tbaa !21
  %43 = lshr i32 %.0.copyload.i, 8
  %44 = and i32 %43, 15
  %45 = sub nuw nsw i32 8380421, %44
  %46 = sub nsw i32 4, %44
  %.neg.i.i.i.i20 = ashr i32 %46, 31
  %47 = tail call i32 asm "", "=r,0,~{dirflag},~{fpsr},~{flags}"(i32 range(i32 -1, 1) %.neg.i.i.i.i20) #10, !srcloc !42
  %48 = and i32 %47, %45
  %49 = xor i32 %.neg.i.i.i.i20, -1
  %50 = tail call i32 asm "", "=r,0,~{dirflag},~{fpsr},~{flags}"(i32 range(i32 -1, 2) %49) #10, !srcloc !42
  %51 = and i32 %50, %46
  %52 = or i32 %51, %48
  %53 = getelementptr inbounds nuw i8, ptr %.01738, i64 12
  store i32 %52, ptr %42, align 4, !tbaa !21
  %54 = lshr i32 %.0.copyload.i, 12
  %55 = and i32 %54, 15
  %56 = sub nuw nsw i32 8380421, %55
  %57 = sub nsw i32 4, %55
  %.neg.i.i.i.i21 = ashr i32 %57, 31
  %58 = tail call i32 asm "", "=r,0,~{dirflag},~{fpsr},~{flags}"(i32 range(i32 -1, 1) %.neg.i.i.i.i21) #10, !srcloc !42
  %59 = and i32 %58, %56
  %60 = xor i32 %.neg.i.i.i.i21, -1
  %61 = tail call i32 asm "", "=r,0,~{dirflag},~{fpsr},~{flags}"(i32 range(i32 -1, 2) %60) #10, !srcloc !42
  %62 = and i32 %61, %57
  %63 = or i32 %62, %59
  %64 = getelementptr inbounds nuw i8, ptr %.01738, i64 16
  store i32 %63, ptr %53, align 4, !tbaa !21
  %65 = lshr i32 %.0.copyload.i, 16
  %66 = and i32 %65, 15
  %67 = sub nuw nsw i32 8380421, %66
  %68 = sub nsw i32 4, %66
  %.neg.i.i.i.i22 = ashr i32 %68, 31
  %69 = tail call i32 asm "", "=r,0,~{dirflag},~{fpsr},~{flags}"(i32 range(i32 -1, 1) %.neg.i.i.i.i22) #10, !srcloc !42
  %70 = and i32 %69, %67
  %71 = xor i32 %.neg.i.i.i.i22, -1
  %72 = tail call i32 asm "", "=r,0,~{dirflag},~{fpsr},~{flags}"(i32 range(i32 -1, 2) %71) #10, !srcloc !42
  %73 = and i32 %72, %68
  %74 = or i32 %73, %70
  %75 = getelementptr inbounds nuw i8, ptr %.01738, i64 20
  store i32 %74, ptr %64, align 4, !tbaa !21
  %76 = lshr i32 %.0.copyload.i, 20
  %77 = and i32 %76, 15
  %78 = sub nuw nsw i32 8380421, %77
  %79 = sub nsw i32 4, %77
  %.neg.i.i.i.i23 = ashr i32 %79, 31
  %80 = tail call i32 asm "", "=r,0,~{dirflag},~{fpsr},~{flags}"(i32 range(i32 -1, 1) %.neg.i.i.i.i23) #10, !srcloc !42
  %81 = and i32 %80, %78
  %82 = xor i32 %.neg.i.i.i.i23, -1
  %83 = tail call i32 asm "", "=r,0,~{dirflag},~{fpsr},~{flags}"(i32 range(i32 -1, 2) %82) #10, !srcloc !42
  %84 = and i32 %83, %79
  %85 = or i32 %84, %81
  %86 = getelementptr inbounds nuw i8, ptr %.01738, i64 24
  store i32 %85, ptr %75, align 4, !tbaa !21
  %87 = lshr i32 %.0.copyload.i, 24
  %88 = and i32 %87, 15
  %89 = sub nuw nsw i32 8380421, %88
  %90 = sub nsw i32 4, %88
  %.neg.i.i.i.i24 = ashr i32 %90, 31
  %91 = tail call i32 asm "", "=r,0,~{dirflag},~{fpsr},~{flags}"(i32 range(i32 -1, 1) %.neg.i.i.i.i24) #10, !srcloc !42
  %92 = and i32 %91, %89
  %93 = xor i32 %.neg.i.i.i.i24, -1
  %94 = tail call i32 asm "", "=r,0,~{dirflag},~{fpsr},~{flags}"(i32 range(i32 -1, 2) %93) #10, !srcloc !42
  %95 = and i32 %94, %90
  %96 = or i32 %95, %92
  %97 = getelementptr inbounds nuw i8, ptr %.01738, i64 28
  store i32 %96, ptr %86, align 4, !tbaa !21
  %98 = lshr i32 %.0.copyload.i, 28
  %99 = sub nuw nsw i32 8380421, %98
  %100 = sub nsw i32 4, %98
  %.neg.i.i.i.i25 = ashr i32 %100, 31
  %101 = tail call i32 asm "", "=r,0,~{dirflag},~{fpsr},~{flags}"(i32 range(i32 -1, 1) %.neg.i.i.i.i25) #10, !srcloc !42
  %102 = and i32 %101, %99
  %103 = xor i32 %.neg.i.i.i.i25, -1
  %104 = tail call i32 asm "", "=r,0,~{dirflag},~{fpsr},~{flags}"(i32 range(i32 -1, 2) %103) #10, !srcloc !42
  %105 = and i32 %104, %100
  %106 = or i32 %105, %102
  %107 = getelementptr inbounds nuw i8, ptr %.01738, i64 32
  store i32 %106, ptr %97, align 4, !tbaa !21
  %108 = add nuw nsw i32 %.039, 1
  %exitcond.not = icmp eq i32 %108, 32
  br i1 %exitcond.not, label %PACKET_get_bytes.exit.thread, label %4, !llvm.loop !56

PACKET_get_bytes.exit.thread:                     ; preds = %4, %21, %7
  %.016 = phi i32 [ 0, %7 ], [ 1, %21 ], [ 0, %4 ]
  ret i32 %.016
}